target datalayout = "e-m:e-p270:32:32-p271:32:32-p272:64:64-i64:64-i128:128-f80:128-n8:16:32:64-S128"
target triple = "x86_64-pc-linux-gnu"

%struct.t_nextnb = type { i32, i32, ptr, ptr }

@.str = private unnamed_addr constant [7 x i8] c"nnb->a\00", align 1
@.str.1 = private unnamed_addr constant [134 x i8] c"generated/home/dtcxzyw/WorkSpace/Projects/compilers/llvm-opt-benchmark/bench/gromacs/gromacs/src/gromacs/gmxpreprocess/gpp_nextnb.cpp\00", align 1
@.str.2 = private unnamed_addr constant [12 x i8] c"nnb->nrexcl\00", align 1
@.str.3 = private unnamed_addr constant [10 x i8] c"nnb->a[i]\00", align 1
@.str.4 = private unnamed_addr constant [15 x i8] c"nnb->nrexcl[i]\00", align 1
@.str.5 = private unnamed_addr constant [15 x i8] c"nnb->a[i][nre]\00", align 1

; Function Attrs: inlinehint mustprogress uwtable
define internal void @_ZL14gmx_sfree_implIPPiEvPKcS3_iPT_(ptr noundef %0, ptr noundef %1, i32 noundef %2, ptr noundef %3) #2 {
  %5 = alloca ptr, align 8
  %6 = alloca ptr, align 8
  %7 = alloca i32, align 4
  %8 = alloca ptr, align 8
  store ptr %0, ptr %5, align 8, !tbaa !22
  store ptr %1, ptr %6, align 8, !tbaa !22
  store i32 %2, ptr %7, align 4, !tbaa !9
  store ptr %3, ptr %8, align 8, !tbaa !29
  %9 = load ptr, ptr %5, align 8, !tbaa !22
  %10 = load ptr, ptr %6, align 8, !tbaa !22
  %11 = load i32, ptr %7, align 4, !tbaa !9
  %12 = load ptr, ptr %8, align 8, !tbaa !29
  call void @_Z9save_freePKcS0_iPv(ptr noundef %9, ptr noundef %10, i32 noundef %11, ptr noundef %12)
  ret void
}

; Function Attrs: inlinehint mustprogress uwtable
define internal void @_ZL14gmx_sfree_implIPiEvPKcS2_iPT_(ptr noundef %0, ptr noundef %1, i32 noundef %2, ptr noundef %3) #2 {
  %5 = alloca ptr, align 8
  %6 = alloca ptr, align 8
  %7 = alloca i32, align 4
  %8 = alloca ptr, align 8
  store ptr %0, ptr %5, align 8, !tbaa !22
  store ptr %1, ptr %6, align 8, !tbaa !22
  store i32 %2, ptr %7, align 4, !tbaa !9
  store ptr %3, ptr %8, align 8, !tbaa !30
  %9 = load ptr, ptr %5, align 8, !tbaa !22
  %10 = load ptr, ptr %6, align 8, !tbaa !22
  %11 = load i32, ptr %7, align 4, !tbaa !9
  %12 = load ptr, ptr %8, align 8, !tbaa !30
  call void @_Z9save_freePKcS0_iPv(ptr noundef %9, ptr noundef %10, i32 noundef %11, ptr noundef %12)
  ret void
}

; Function Attrs: inlinehint mustprogress uwtable
define internal void @_ZL14gmx_sfree_implIiEvPKcS1_iPT_(ptr noundef %0, ptr noundef %1, i32 noundef %2, ptr noundef %3) #2 {
  %5 = alloca ptr, align 8
  %6 = alloca ptr, align 8
  %7 = alloca i32, align 4
  %8 = alloca ptr, align 8
  store ptr %0, ptr %5, align 8, !tbaa !22
  store ptr %1, ptr %6, align 8, !tbaa !22
  store i32 %2, ptr %7, align 4, !tbaa !9
  store ptr %3, ptr %8, align 8, !tbaa !31
  %9 = load ptr, ptr %5, align 8, !tbaa !22
  %10 = load ptr, ptr %6, align 8, !tbaa !22
  %11 = load i32, ptr %7, align 4, !tbaa !9
  %12 = load ptr, ptr %8, align 8, !tbaa !31
  call void @_Z9save_freePKcS0_iPv(ptr noundef %9, ptr noundef %10, i32 noundef %11, ptr noundef %12)
  ret void
}

; Function Attrs: mustprogress uwtable
define void @_Z8done_nnbP8t_nextnb(ptr noundef %0) #0 {
  %2 = alloca ptr, align 8
  %3 = alloca i32, align 4
  %4 = alloca i32, align 4
  store ptr %0, ptr %2, align 8, !tbaa !4
  call void @llvm.lifetime.start.p0(i64 4, ptr %3) #14
  call void @llvm.lifetime.start.p0(i64 4, ptr %4) #14
  store i32 0, ptr %3, align 4, !tbaa !9
  br label %5

5:                                                ; preds = %62, %1
  %6 = load i32, ptr %3, align 4, !tbaa !9
  %7 = load ptr, ptr %2, align 8, !tbaa !4
  %8 = getelementptr inbounds nuw %struct.t_nextnb, ptr %7, i32 0, i32 0
  %9 = load i32, ptr %8, align 8, !tbaa !11
  %10 = icmp slt i32 %6, %9
  br i1 %10, label %11, label %65

11:                                               ; preds = %5
  store i32 0, ptr %4, align 4, !tbaa !9
  br label %12

12:                                               ; preds = %44, %11
  %13 = load i32, ptr %4, align 4, !tbaa !9
  %14 = load ptr, ptr %2, align 8, !tbaa !4
  %15 = getelementptr inbounds nuw %struct.t_nextnb, ptr %14, i32 0, i32 1
  %16 = load i32, ptr %15, align 4, !tbaa !17
  %17 = icmp sle i32 %13, %16
  br i1 %17, label %18, label %47

18:                                               ; preds = %12
  %19 = load ptr, ptr %2, align 8, !tbaa !4
  %20 = getelementptr inbounds nuw %struct.t_nextnb, ptr %19, i32 0, i32 2
  %21 = load ptr, ptr %20, align 8, !tbaa !19
  %22 = load i32, ptr %3, align 4, !tbaa !9
  %23 = sext i32 %22 to i64
  %24 = getelementptr inbounds ptr, ptr %21, i64 %23
  %25 = load ptr, ptr %24, align 8, !tbaa !31
  %26 = load i32, ptr %4, align 4, !tbaa !9
  %27 = sext i32 %26 to i64
  %28 = getelementptr inbounds i32, ptr %25, i64 %27
  %29 = load i32, ptr %28, align 4, !tbaa !9
  %30 = icmp sgt i32 %29, 0
  br i1 %30, label %31, label %43

31:                                               ; preds = %18
  %32 = load ptr, ptr %2, align 8, !tbaa !4
  %33 = getelementptr inbounds nuw %struct.t_nextnb, ptr %32, i32 0, i32 3
  %34 = load ptr, ptr %33, align 8, !tbaa !18
  %35 = load i32, ptr %3, align 4, !tbaa !9
  %36 = sext i32 %35 to i64
  %37 = getelementptr inbounds ptr, ptr %34, i64 %36
  %38 = load ptr, ptr %37, align 8, !tbaa !30
  %39 = load i32, ptr %4, align 4, !tbaa !9
  %40 = sext i32 %39 to i64
  %41 = getelementptr inbounds ptr, ptr %38, i64 %40
  %42 = load ptr, ptr %41, align 8, !tbaa !31
  call void @_ZL14gmx_sfree_implIiEvPKcS1_iPT_(ptr noundef @.str.5, ptr noundef @.str.1, i32 noundef 140, ptr noundef %42)
  br label %43

43:                                               ; preds = %31, %18
  br label %44

44:                                               ; preds = %43
  %45 = load i32, ptr %4, align 4, !tbaa !9
  %46 = add nsw i32 %45, 1
  store i32 %46, ptr %4, align 4, !tbaa !9
  br label %12, !llvm.loop !33

47:                                               ; preds = %12
  %48 = load ptr, ptr %2, align 8, !tbaa !4
  %49 = getelementptr inbounds nuw %struct.t_nextnb, ptr %48, i32 0, i32 2
  %50 = load ptr, ptr %49, align 8, !tbaa !19
  %51 = load i32, ptr %3, align 4, !tbaa !9
  %52 = sext i32 %51 to i64
  %53 = getelementptr inbounds ptr, ptr %50, i64 %52
  %54 = load ptr, ptr %53, align 8, !tbaa !31
  call void @_ZL14gmx_sfree_implIiEvPKcS1_iPT_(ptr noundef @.str.4, ptr noundef @.str.1, i32 noundef 143, ptr noundef %54)
  %55 = load ptr, ptr %2, align 8, !tbaa !4
  %56 = getelementptr inbounds nuw %struct.t_nextnb, ptr %55, i32 0, i32 3
  %57 = load ptr, ptr %56, align 8, !tbaa !18
  %58 = load i32, ptr %3, align 4, !tbaa !9
  %59 = sext i32 %58 to i64
  %60 = getelementptr inbounds ptr, ptr %57, i64 %59
  %61 = load ptr, ptr %60, align 8, !tbaa !30
  call void @_ZL14gmx_sfree_implIPiEvPKcS2_iPT_(ptr noundef @.str.3, ptr noundef @.str.1, i32 noundef 144, ptr noundef %61)
  br label %62

62:                                               ; preds = %47
  %63 = load i32, ptr %3, align 4, !tbaa !9
  %64 = add nsw i32 %63, 1
  store i32 %64, ptr %3, align 4, !tbaa !9
  br label %5, !llvm.loop !34

65:                                               ; preds = %5
  %66 = load ptr, ptr %2, align 8, !tbaa !4
  %67 = getelementptr inbounds nuw %struct.t_nextnb, ptr %66, i32 0, i32 3
  %68 = load ptr, ptr %67, align 8, !tbaa !18
  call void @_ZL14gmx_sfree_implIPPiEvPKcS3_iPT_(ptr noundef @.str, ptr noundef @.str.1, i32 noundef 146, ptr noundef %68)
  %69 = load ptr, ptr %2, align 8, !tbaa !4
  %70 = getelementptr inbounds nuw %struct.t_nextnb, ptr %69, i32 0, i32 2
  %71 = load ptr, ptr %70, align 8, !tbaa !19
  call void @_ZL14gmx_sfree_implIPiEvPKcS2_iPT_(ptr noundef @.str.2, ptr noundef @.str.1, i32 noundef 147, ptr noundef %71)
  %72 = load ptr, ptr %2, align 8, !tbaa !4
  %73 = getelementptr inbounds nuw %struct.t_nextnb, ptr %72, i32 0, i32 0
  store i32 0, ptr %73, align 8, !tbaa !11
  %74 = load ptr, ptr %2, align 8, !tbaa !4
  %75 = getelementptr inbounds nuw %struct.t_nextnb, ptr %74, i32 0, i32 1
  store i32 0, ptr %75, align 4, !tbaa !17
  call void @llvm.lifetime.end.p0(i64 4, ptr %4) #14
  call void @llvm.lifetime.end.p0(i64 4, ptr %3) #14
  ret void
}