; Function Attrs: mustprogress uwtable
define void @_Z8done_nnbP8t_nextnb(ptr noundef captures(none) %0) local_unnamed_addr #0 {
  %2 = load i32, ptr %0, align 8, !tbaa !4
  %3 = icmp sgt i32 %2, 0
  br i1 %3, label %.preheader.lr.ph, label %._crit_edge23

.preheader.lr.ph:                                 ; preds = %1
  %4 = getelementptr inbounds nuw i8, ptr %0, i64 4
  %5 = getelementptr inbounds nuw i8, ptr %0, i64 8
  %6 = getelementptr inbounds nuw i8, ptr %0, i64 16
  br label %.preheader

.preheader:                                       ; preds = %.preheader.lr.ph, %._crit_edge
  %indvars.iv25 = phi i64 [ 0, %.preheader.lr.ph ], [ %indvars.iv.next26, %._crit_edge ]
  %7 = load i32, ptr %4, align 4, !tbaa !14
  %.not20 = icmp slt i32 %7, 0
  br i1 %.not20, label %._crit_edge, label %.lr.ph

.lr.ph:                                           ; preds = %.preheader, %21
  %8 = phi i32 [ %22, %21 ], [ %7, %.preheader ]
  %indvars.iv = phi i64 [ %indvars.iv.next, %21 ], [ 0, %.preheader ]
  %9 = load ptr, ptr %5, align 8, !tbaa !18
  %10 = getelementptr inbounds nuw ptr, ptr %9, i64 %indvars.iv25
  %11 = load ptr, ptr %10, align 8, !tbaa !19
  %12 = getelementptr inbounds nuw i32, ptr %11, i64 %indvars.iv
  %13 = load i32, ptr %12, align 4, !tbaa !23
  %14 = icmp sgt i32 %13, 0
  br i1 %14, label %15, label %21

15:                                               ; preds = %.lr.ph
  %16 = load ptr, ptr %6, align 8, !tbaa !17
  %17 = getelementptr inbounds nuw ptr, ptr %16, i64 %indvars.iv25
  %18 = load ptr, ptr %17, align 8, !tbaa !16
  %19 = getelementptr inbounds nuw ptr, ptr %18, i64 %indvars.iv
  %20 = load ptr, ptr %19, align 8, !tbaa !19
  tail call void @_Z9save_freePKcS0_iPv(ptr noundef nonnull @.str.5, ptr noundef nonnull @.str.1, i32 noundef 140, ptr noundef %20)
  %.pre = load i32, ptr %4, align 4, !tbaa !14
  br label %21

21:                                               ; preds = %.lr.ph, %15
  %22 = phi i32 [ %8, %.lr.ph ], [ %.pre, %15 ]
  %indvars.iv.next = add nuw nsw i64 %indvars.iv, 1
  %23 = sext i32 %22 to i64
  %.not.not = icmp slt i64 %indvars.iv, %23
  br i1 %.not.not, label %.lr.ph, label %._crit_edge, !llvm.loop !24

._crit_edge:                                      ; preds = %21, %.preheader
  %24 = load ptr, ptr %5, align 8, !tbaa !18
  %25 = getelementptr inbounds nuw ptr, ptr %24, i64 %indvars.iv25
  %26 = load ptr, ptr %25, align 8, !tbaa !19
  tail call void @_Z9save_freePKcS0_iPv(ptr noundef nonnull @.str.4, ptr noundef nonnull @.str.1, i32 noundef 143, ptr noundef %26)
  %27 = load ptr, ptr %6, align 8, !tbaa !17
  %28 = getelementptr inbounds nuw ptr, ptr %27, i64 %indvars.iv25
  %29 = load ptr, ptr %28, align 8, !tbaa !16
  tail call void @_Z9save_freePKcS0_iPv(ptr noundef nonnull @.str.3, ptr noundef nonnull @.str.1, i32 noundef 144, ptr noundef %29)
  %indvars.iv.next26 = add nuw nsw i64 %indvars.iv25, 1
  %30 = load i32, ptr %0, align 8, !tbaa !4
  %31 = sext i32 %30 to i64
  %32 = icmp slt i64 %indvars.iv.next26, %31
  br i1 %32, label %.preheader, label %._crit_edge23, !llvm.loop !25

._crit_edge23:                                    ; preds = %._crit_edge, %1
  %33 = getelementptr inbounds nuw i8, ptr %0, i64 16
  %34 = load ptr, ptr %33, align 8, !tbaa !17
  tail call void @_Z9save_freePKcS0_iPv(ptr noundef nonnull @.str, ptr noundef nonnull @.str.1, i32 noundef 146, ptr noundef %34)
  %35 = getelementptr inbounds nuw i8, ptr %0, i64 8
  %36 = load ptr, ptr %35, align 8, !tbaa !18
  tail call void @_Z9save_freePKcS0_iPv(ptr noundef nonnull @.str.2, ptr noundef nonnull @.str.1, i32 noundef 147, ptr noundef %36)
  store i32 0, ptr %0, align 8, !tbaa !4
  %37 = getelementptr inbounds nuw i8, ptr %0, i64 4
  store i32 0, ptr %37, align 4, !tbaa !14
  ret void
}